(dp0
S'num_threads'
p1
I4
sS'iclamp_start'
p2
I200
sS'description'
p3
S'_Isoma1.7'
p4
sS'NpHR_times'
p5
(lp6
F0.0005
aI10
aI100
aI1300
aI1300
aI600
aI1
asS'EPSP_amp'
p7
F0.0
sS'opdict'
p8
(dp9
S'ChR'
p10
(lp11
(lp12
S'apical_distal'
p13
ag6
aa(lp14
S'apical_proximal'
p15
ag6
aasS'NpHR'
p16
(lp17
(lp18
Nag6
aassS'tstop'
p19
I1400
sS'iclamp_duration'
p20
I1000
sS'iclamp_amp'
p21
cnumpy.core.multiarray
scalar
p22
(cnumpy
dtype
p23
(S'f8'
p24
I0
I1
tp25
Rp26
(I3
S'<'
p27
NNNI-1
I-1
I0
tp28
bS'433333\xfb?'
p29
tp30
Rp31
sS'logdata'
p32
I01
sS'expname'
p33
S'130624_incr_lighton_Isoma1.7_NpHR_none_ChR_apical'
p34
sS'soma_stim_DC'
p35
F1.0
sS'NpHR_areas'
p36
(dp37
S'none'
p38
(lp39
NassS'tstart'
p40
I0
sS'experiment_type'
p41
S'BAC'
p42
sS'expname_family'
p43
S'130624_incr_lighton'
p44
sS'savedata'
p45
I01
sS'EPSP_transient'
p46
F200.0
sS'ChR_times'
p47
g6
sS'ChR_areas'
p48
(dp49
S'apical'
p50
(lp51
g13
ag15
ass.