(dp0
S'num_threads'
p1
I4
sS'iclamp_start'
p2
I200
sS'description'
p3
S'_Isoma1.0'
p4
sS'NpHR_times'
p5
(lp6
F0.0005
aI10
aI100
aI1300
aI1300
aI600
aI1
asS'EPSP_amp'
p7
F0.0
sS'opdict'
p8
(dp9
S'ChR'
p10
(lp11
(lp12
S'apical_distal'
p13
ag6
aa(lp14
S'apical_proximal'
p15
ag6
aasS'NpHR'
p16
(lp17
(lp18
g13
ag6
aa(lp19
g15
ag6
aassS'tstop'
p20
I1400
sS'iclamp_duration'
p21
I1000
sS'iclamp_amp'
p22
cnumpy.core.multiarray
scalar
p23
(cnumpy
dtype
p24
(S'f8'
p25
I0
I1
tp26
Rp27
(I3
S'<'
p28
NNNI-1
I-1
I0
tp29
bS'\x00\x00\x00\x00\x00\x00\xf0?'
p30
tp31
Rp32
sS'logdata'
p33
I01
sS'expname'
p34
S'130624_incr_lighton_Isoma1.0_NpHR_apical_ChR_apical'
p35
sS'soma_stim_DC'
p36
F1.0
sS'NpHR_areas'
p37
(dp38
S'apical'
p39
(lp40
g13
ag15
assS'tstart'
p41
I0
sS'experiment_type'
p42
S'BAC'
p43
sS'expname_family'
p44
S'130624_incr_lighton'
p45
sS'savedata'
p46
I01
sS'EPSP_transient'
p47
F200.0
sS'ChR_times'
p48
g6
sS'ChR_areas'
p49
(dp50
g39
g40
ss.