(dp0
S'num_threads'
p1
I4
sS'iclamp_start'
p2
I200
sS'description'
p3
S'_Isoma0.2'
p4
sS'NpHR_times'
p5
(lp6
F0.0005
aI10
aI100
aI1300
aI1300
aI600
aI1
asS'EPSP_amp'
p7
F0.0
sS'opdict'
p8
(dp9
S'ChR'
p10
(lp11
(lp12
S'soma'
p13
ag6
aa(lp14
S'basal'
p15
ag6
aa(lp16
S'axon'
p17
ag6
aa(lp18
S'apical_proximal'
p19
ag6
aa(lp20
S'apical_distal'
p21
ag6
aasS'NpHR'
p22
(lp23
(lp24
g13
ag6
aa(lp25
g15
ag6
aa(lp26
g17
ag6
aa(lp27
g19
ag6
aa(lp28
g21
ag6
aassS'tstop'
p29
I1400
sS'iclamp_duration'
p30
I1000
sS'iclamp_amp'
p31
cnumpy.core.multiarray
scalar
p32
(cnumpy
dtype
p33
(S'f8'
p34
I0
I1
tp35
Rp36
(I3
S'<'
p37
NNNI-1
I-1
I0
tp38
bS'\x9a\x99\x99\x99\x99\x99\xc9?'
p39
tp40
Rp41
sS'logdata'
p42
I01
sS'expname'
p43
S'130624_incr_lighton_Isoma0.2_NpHR_whole_ChR_whole'
p44
sS'soma_stim_DC'
p45
F1.0
sS'NpHR_areas'
p46
(dp47
S'whole'
p48
(lp49
g13
ag15
ag17
ag19
ag21
assS'tstart'
p50
I0
sS'experiment_type'
p51
S'BAC'
p52
sS'expname_family'
p53
S'130624_incr_lighton'
p54
sS'savedata'
p55
I01
sS'EPSP_transient'
p56
F200.0
sS'ChR_times'
p57
g6
sS'ChR_areas'
p58
(dp59
g48
g49
ss.