(dp0
S'num_threads'
p1
I4
sS'iclamp_start'
p2
I200
sS'description'
p3
S'_Isoma1.7'
p4
sS'NpHR_times'
p5
(lp6
F0.0005
aI10
aI100
aI1300
aI1300
aI600
aI1
asS'EPSP_amp'
p7
F0.0
sS'opdict'
p8
(dp9
S'ChR'
p10
(lp11
(lp12
Nag6
aasS'NpHR'
p13
(lp14
(lp15
S'soma'
p16
ag6
aa(lp17
S'basal'
p18
ag6
aa(lp19
S'axon'
p20
ag6
aa(lp21
S'apical_proximal'
p22
ag6
aa(lp23
S'apical_distal'
p24
ag6
aassS'tstop'
p25
I1400
sS'iclamp_duration'
p26
I1000
sS'iclamp_amp'
p27
cnumpy.core.multiarray
scalar
p28
(cnumpy
dtype
p29
(S'f8'
p30
I0
I1
tp31
Rp32
(I3
S'<'
p33
NNNI-1
I-1
I0
tp34
bS'433333\xfb?'
p35
tp36
Rp37
sS'logdata'
p38
I01
sS'expname'
p39
S'130624_incr_lighton_Isoma1.7_NpHR_whole_ChR_none'
p40
sS'soma_stim_DC'
p41
F1.0
sS'NpHR_areas'
p42
(dp43
S'whole'
p44
(lp45
g16
ag18
ag20
ag22
ag24
assS'tstart'
p46
I0
sS'experiment_type'
p47
S'BAC'
p48
sS'expname_family'
p49
S'130624_incr_lighton'
p50
sS'savedata'
p51
I01
sS'EPSP_transient'
p52
F200.0
sS'ChR_times'
p53
g6
sS'ChR_areas'
p54
(dp55
S'none'
p56
(lp57
Nass.