(dp0
S'num_threads'
p1
I4
sS'iclamp_start'
p2
I200
sS'description'
p3
S'_Isoma0.6'
p4
sS'NpHR_times'
p5
(lp6
F0.0005
aI10
aI100
aI1300
aI1300
aI600
aI1
asS'EPSP_amp'
p7
F0.0
sS'opdict'
p8
(dp9
S'ChR'
p10
(lp11
(lp12
Nag6
aasS'NpHR'
p13
(lp14
(lp15
Nag6
aassS'tstop'
p16
I1400
sS'iclamp_duration'
p17
I1000
sS'iclamp_amp'
p18
cnumpy.core.multiarray
scalar
p19
(cnumpy
dtype
p20
(S'f8'
p21
I0
I1
tp22
Rp23
(I3
S'<'
p24
NNNI-1
I-1
I0
tp25
bS'433333\xe3?'
p26
tp27
Rp28
sS'logdata'
p29
I01
sS'expname'
p30
S'130624_incr_lighton_Isoma0.6_NpHR_none_ChR_none'
p31
sS'soma_stim_DC'
p32
F1.0
sS'NpHR_areas'
p33
(dp34
S'none'
p35
(lp36
NassS'tstart'
p37
I0
sS'experiment_type'
p38
S'BAC'
p39
sS'expname_family'
p40
S'130624_incr_lighton'
p41
sS'savedata'
p42
I01
sS'EPSP_transient'
p43
F200.0
sS'ChR_times'
p44
g6
sS'ChR_areas'
p45
(dp46
g35
g36
ss.